target datalayout = "e-m:e-p270:32:32-p271:32:32-p272:64:64-i64:64-i128:128-f80:128-n8:16:32:64-S128"
target triple = "x86_64-pc-linux-gnu"

@.str.13 = private unnamed_addr constant [12 x i8] c"NotifyClamd\00", align 1
@.str.14 = private unnamed_addr constant [7 x i8] c"RELOAD\00", align 1
@.str.15 = private unnamed_addr constant [50 x i8] c"NotifyClamd: Could not write to clamd socket: %s\0A\00", align 1
@.str.16 = private unnamed_addr constant [10 x i8] c"RELOADING\00", align 1
@.str.17 = private unnamed_addr constant [46 x i8] c"NotifyClamd: Unknown answer from clamd: '%s'\0A\00", align 1
@.str.18 = private unnamed_addr constant [47 x i8] c"Clamd successfully notified about the update.\0A\00", align 1

; Function Attrs: nounwind uwtable
define dso_local i32 @notify(ptr noundef %0) #0 {
  %2 = alloca i32, align 4
  %3 = alloca ptr, align 8
  %4 = alloca [20 x i8], align 16
  %5 = alloca i32, align 4
  %6 = alloca i32, align 4
  store ptr %0, ptr %3, align 8
  %7 = load ptr, ptr %3, align 8
  %8 = call i32 @clamd_connect(ptr noundef %7, ptr noundef @.str.13)
  store i32 %8, ptr %5, align 4
  %9 = icmp slt i32 %8, 0
  br i1 %9, label %10, label %11

10:                                               ; preds = %1
  store i32 1, ptr %2, align 4
  br label %43

11:                                               ; preds = %1
  %12 = load i32, ptr %5, align 4
  %13 = call i32 @sendln(i32 noundef %12, ptr noundef @.str.14, i32 noundef 7)
  %14 = icmp slt i32 %13, 0
  br i1 %14, label %15, label %22

15:                                               ; preds = %11
  %16 = call ptr @__errno_location() #7
  %17 = load i32, ptr %16, align 4
  %18 = call ptr @strerror(i32 noundef %17) #6
  %19 = call i32 (i32, ptr, ...) @logg(i32 noundef 5, ptr noundef @.str.15, ptr noundef %18)
  %20 = load i32, ptr %5, align 4
  %21 = call i32 @close(i32 noundef %20)
  store i32 1, ptr %2, align 4
  br label %43

22:                                               ; preds = %11
  %23 = getelementptr inbounds [20 x i8], ptr %4, i64 0, i64 0
  call void @llvm.memset.p0.i64(ptr align 16 %23, i8 0, i64 20, i1 false)
  %24 = load i32, ptr %5, align 4
  %25 = getelementptr inbounds [20 x i8], ptr %4, i64 0, i64 0
  %26 = call i64 @recv(i32 noundef %24, ptr noundef %25, i64 noundef 20, i32 noundef 0)
  %27 = trunc i64 %26 to i32
  store i32 %27, ptr %6, align 4
  %28 = icmp sgt i32 %27, 0
  br i1 %28, label %29, label %39

29:                                               ; preds = %22
  %30 = getelementptr inbounds [20 x i8], ptr %4, i64 0, i64 0
  %31 = call ptr @strstr(ptr noundef %30, ptr noundef @.str.16) #8
  %32 = icmp ne ptr %31, null
  br i1 %32, label %38, label %33

33:                                               ; preds = %29
  %34 = getelementptr inbounds [20 x i8], ptr %4, i64 0, i64 0
  %35 = call i32 (i32, ptr, ...) @logg(i32 noundef 5, ptr noundef @.str.17, ptr noundef %34)
  %36 = load i32, ptr %5, align 4
  %37 = call i32 @close(i32 noundef %36)
  store i32 -1, ptr %2, align 4
  br label %43

38:                                               ; preds = %29
  br label %39

39:                                               ; preds = %38, %22
  %40 = load i32, ptr %5, align 4
  %41 = call i32 @close(i32 noundef %40)
  %42 = call i32 (i32, ptr, ...) @logg(i32 noundef 0, ptr noundef @.str.18)
  store i32 0, ptr %2, align 4
  br label %43

43:                                               ; preds = %39, %33, %15, %10
  %44 = load i32, ptr %2, align 4
  ret i32 %44
}