; Function Attrs: nounwind uwtable
define dso_local noundef i32 @notify(ptr noundef %0) local_unnamed_addr #0 {
  %2 = alloca [20 x i8], align 16
  %3 = tail call i32 @clamd_connect(ptr noundef %0, ptr noundef nonnull @.str.13), !range !5
  %4 = icmp slt i32 %3, 0
  br i1 %4, label %26, label %5

5:                                                ; preds = %1
  %6 = tail call i32 @sendln(i32 noundef %3, ptr noundef nonnull @.str.14, i32 noundef 7) #8
  %7 = icmp slt i32 %6, 0
  br i1 %7, label %8, label %14

8:                                                ; preds = %5
  %9 = tail call ptr @__errno_location() #9
  %10 = load i32, ptr %9, align 4
  %11 = tail call ptr @strerror(i32 noundef %10) #8
  %12 = tail call i32 (i32, ptr, ...) @logg(i32 noundef 5, ptr noundef nonnull @.str.15, ptr noundef %11) #8
  %13 = tail call i32 @close(i32 noundef %3) #8
  br label %26

14:                                               ; preds = %5
  call void @llvm.memset.p0.i64(ptr noundef nonnull align 16 dereferenceable(20) %2, i8 0, i64 20, i1 false)
  %15 = call i64 @recv(i32 noundef %3, ptr noundef nonnull %2, i64 noundef 20, i32 noundef 0) #8
  %16 = trunc i64 %15 to i32
  %17 = icmp sgt i32 %16, 0
  br i1 %17, label %18, label %23

18:                                               ; preds = %14
  %19 = call ptr @strstr(ptr noundef nonnull dereferenceable(1) %2, ptr noundef nonnull dereferenceable(1) @.str.16) #10
  %.not = icmp eq ptr %19, null
  br i1 %.not, label %20, label %23

20:                                               ; preds = %18
  %21 = call i32 (i32, ptr, ...) @logg(i32 noundef 5, ptr noundef nonnull @.str.17, ptr noundef nonnull %2) #8
  %22 = call i32 @close(i32 noundef %3) #8
  br label %26

23:                                               ; preds = %18, %14
  %24 = call i32 @close(i32 noundef %3) #8
  %25 = call i32 (i32, ptr, ...) @logg(i32 noundef 0, ptr noundef nonnull @.str.18) #8
  br label %26

26:                                               ; preds = %1, %23, %20, %8
  %.0 = phi i32 [ 1, %8 ], [ 0, %23 ], [ -1, %20 ], [ 1, %1 ]
  ret i32 %.0
}